; ModuleID = 'source-C-CXX/56/226.c'
source_filename = "source-C-CXX/56/226.c"
target datalayout = "e-m:e-p270:32:32-p271:32:32-p272:64:64-i64:64-f80:128-n8:16:32:64-S128"
target triple = "x86_64-pc-linux-gnu"

%struct.word = type { [30 x i8] }

@.str = private unnamed_addr constant [3 x i8] c"%d\00", align 1
@.str.1 = private unnamed_addr constant [3 x i8] c"%s\00", align 1
@word = dso_local global [50 x %struct.word] zeroinitializer, align 16

; Function Attrs: nofree nounwind sspstrong uwtable
define dso_local void @main() local_unnamed_addr #0 {
  %1 = alloca i32, align 4
  %2 = alloca [30 x i8], align 16
  %3 = bitcast i32* %1 to i8*
  call void @llvm.lifetime.start.p0i8(i64 4, i8* nonnull %3) #6
  %4 = getelementptr inbounds [30 x i8], [30 x i8]* %2, i64 0, i64 0
  call void @llvm.lifetime.start.p0i8(i64 30, i8* nonnull %4) #6
  %5 = call i32 (i8*, ...) @__isoc99_scanf(i8* getelementptr inbounds ([3 x i8], [3 x i8]* @.str, i64 0, i64 0), i32* nonnull %1)
  %6 = load i32, i32* %1, align 4, !tbaa !5
  %7 = icmp sgt i32 %6, 0
  br i1 %7, label %12, label %71

8:                                                ; preds = %12
  %9 = icmp sgt i32 %17, 0
  br i1 %9, label %10, label %71

10:                                               ; preds = %8
  %11 = zext i32 %17 to i64
  br label %21

12:                                               ; preds = %0, %12
  %13 = phi i64 [ %16, %12 ], [ 0, %0 ]
  %14 = getelementptr inbounds [50 x %struct.word], [50 x %struct.word]* @word, i64 0, i64 %13, i32 0, i64 0
  %15 = call i32 (i8*, ...) @__isoc99_scanf(i8* getelementptr inbounds ([3 x i8], [3 x i8]* @.str.1, i64 0, i64 0), i8* nonnull %14)
  %16 = add nuw nsw i64 %13, 1
  %17 = load i32, i32* %1, align 4, !tbaa !5
  %18 = sext i32 %17 to i64
  %19 = icmp slt i64 %16, %18
  br i1 %19, label %12, label %8, !llvm.loop !9

20:                                               ; preds = %60
  br i1 %9, label %63, label %71

21:                                               ; preds = %10, %60
  %22 = phi i64 [ 0, %10 ], [ %61, %60 ]
  %23 = getelementptr inbounds [50 x %struct.word], [50 x %struct.word]* @word, i64 0, i64 %22, i32 0, i64 0
  %24 = call i8* @strcpy(i8* noundef nonnull %4, i8* noundef nonnull %23) #6
  %25 = call i64 @strlen(i8* noundef nonnull %4) #7
  %26 = shl i64 %25, 32
  %27 = add i64 %26, -4294967296
  %28 = ashr exact i64 %27, 32
  %29 = getelementptr inbounds [30 x i8], [30 x i8]* %2, i64 0, i64 %28
  %30 = load i8, i8* %29, align 1, !tbaa !11
  switch i8 %30, label %60 [
    i8 103, label %31
    i8 121, label %44
    i8 114, label %50
  ]

31:                                               ; preds = %21
  %32 = add i64 %26, -8589934592
  %33 = ashr exact i64 %32, 32
  %34 = getelementptr inbounds [30 x i8], [30 x i8]* %2, i64 0, i64 %33
  %35 = load i8, i8* %34, align 1, !tbaa !11
  %36 = icmp eq i8 %35, 110
  br i1 %36, label %37, label %60

37:                                               ; preds = %31
  %38 = add i64 %26, -12884901888
  %39 = ashr exact i64 %38, 32
  %40 = getelementptr inbounds [30 x i8], [30 x i8]* %2, i64 0, i64 %39
  %41 = load i8, i8* %40, align 1, !tbaa !11
  %42 = icmp eq i8 %41, 105
  br i1 %42, label %43, label %60

43:                                               ; preds = %37
  store i8 0, i8* %29, align 1, !tbaa !11
  br label %56

44:                                               ; preds = %21
  %45 = add i64 %26, -8589934592
  %46 = ashr exact i64 %45, 32
  %47 = getelementptr inbounds [30 x i8], [30 x i8]* %2, i64 0, i64 %46
  %48 = load i8, i8* %47, align 1, !tbaa !11
  %49 = icmp eq i8 %48, 108
  br i1 %49, label %56, label %60

50:                                               ; preds = %21
  %51 = add i64 %26, -8589934592
  %52 = ashr exact i64 %51, 32
  %53 = getelementptr inbounds [30 x i8], [30 x i8]* %2, i64 0, i64 %52
  %54 = load i8, i8* %53, align 1, !tbaa !11
  %55 = icmp eq i8 %54, 101
  br i1 %55, label %56, label %60

56:                                               ; preds = %50, %44, %43
  %57 = phi i8* [ %34, %43 ], [ %29, %44 ], [ %29, %50 ]
  %58 = phi i8* [ %40, %43 ], [ %47, %44 ], [ %53, %50 ]
  store i8 0, i8* %57, align 1, !tbaa !11
  store i8 0, i8* %58, align 1, !tbaa !11
  %59 = call i8* @strcpy(i8* noundef nonnull %23, i8* noundef nonnull %4) #6
  br label %60

60:                                               ; preds = %56, %21, %31, %37, %44, %50
  %61 = add nuw nsw i64 %22, 1
  %62 = icmp eq i64 %61, %11
  br i1 %62, label %20, label %21, !llvm.loop !12

63:                                               ; preds = %20, %63
  %64 = phi i64 [ %67, %63 ], [ 0, %20 ]
  %65 = getelementptr inbounds [50 x %struct.word], [50 x %struct.word]* @word, i64 0, i64 %64, i32 0, i64 0
  %66 = call i32 @puts(i8* nonnull %65)
  %67 = add nuw nsw i64 %64, 1
  %68 = load i32, i32* %1, align 4, !tbaa !5
  %69 = sext i32 %68 to i64
  %70 = icmp slt i64 %67, %69
  br i1 %70, label %63, label %71, !llvm.loop !13

71:                                               ; preds = %63, %8, %0, %20
  call void @llvm.lifetime.end.p0i8(i64 30, i8* nonnull %4) #6
  call void @llvm.lifetime.end.p0i8(i64 4, i8* nonnull %3) #6
  ret void
}

; Function Attrs: argmemonly mustprogress nofree nosync nounwind willreturn
declare void @llvm.lifetime.start.p0i8(i64 immarg, i8* nocapture) #1

; Function Attrs: nofree nounwind
declare noundef i32 @__isoc99_scanf(i8* nocapture noundef readonly, ...) local_unnamed_addr #2

; Function Attrs: argmemonly mustprogress nofree nounwind willreturn
declare i8* @strcpy(i8* noalias returned writeonly, i8* noalias nocapture readonly) local_unnamed_addr #3

; Function Attrs: argmemonly mustprogress nofree nounwind readonly willreturn
declare i64 @strlen(i8* nocapture) local_unnamed_addr #4

; Function Attrs: argmemonly mustprogress nofree nosync nounwind willreturn
declare void @llvm.lifetime.end.p0i8(i64 immarg, i8* nocapture) #1

; Function Attrs: nofree nounwind
declare noundef i32 @puts(i8* nocapture noundef readonly) local_unnamed_addr #5


!llvm.module.flags = !{!0, !1, !2, !3}
!llvm.ident = !{!4}

!0 = !{i32 1, !"wchar_size", i32 4}
!1 = !{i32 7, !"PIC Level", i32 2}
!2 = !{i32 7, !"PIE Level", i32 2}
!3 = !{i32 7, !"uwtable", i32 1}
!4 = !{!"clang version 13.0.0"}
!5 = !{!6, !6, i64 0}
!6 = !{!"int", !7, i64 0}
!7 = !{!"omnipotent char", !8, i64 0}
!8 = !{!"Simple C/C++ TBAA"}
!9 = distinct !{!9, !10}
!10 = !{!"llvm.loop.mustprogress"}
!11 = !{!7, !7, i64 0}
!12 = distinct !{!12, !10}
!13 = distinct !{!13, !10}
